target datalayout = "e-m:e-p270:32:32-p271:32:32-p272:64:64-i64:64-i128:128-f80:128-n8:16:32:64-S128"
target triple = "x86_64-pc-linux-gnu"

%struct.FunctionCallInfoBaseData = type { ptr, ptr, ptr, i32, i8, i16, [0 x %struct.NullableDatum] }
%struct.NullableDatum = type { i64, i8 }
%struct.GISTENTRY = type { i64, ptr, ptr, i16, i8 }
%struct.BOX = type { %struct.Point, %struct.Point }
%struct.Point = type { double, double }
%struct.CIRCLE = type { %struct.Point, double }

; Function Attrs: inlinehint nounwind uwtable
define internal i64 @PointerGetDatum(ptr noundef %0) #2 {
  %2 = alloca ptr, align 8
  store ptr %0, ptr %2, align 8
  %3 = load ptr, ptr %2, align 8
  %4 = ptrtoint ptr %3 to i64
  ret i64 %4
}

; Function Attrs: inlinehint nounwind uwtable
define internal double @float8_mi(double noundef %0, double noundef %1) #2 {
  %3 = alloca double, align 8
  %4 = alloca double, align 8
  %5 = alloca double, align 8
  store double %0, ptr %3, align 8
  store double %1, ptr %4, align 8
  call void @llvm.lifetime.start.p0(i64 8, ptr %5) #10
  %6 = load double, ptr %3, align 8
  %7 = load double, ptr %4, align 8
  %8 = fsub double %6, %7
  store double %8, ptr %5, align 8
  %9 = load double, ptr %5, align 8
  %10 = call i1 @llvm.is.fpclass.f64(double %9, i32 516)
  %11 = zext i1 %10 to i32
  %12 = icmp ne i32 %11, 0
  %13 = zext i1 %12 to i32
  %14 = sext i32 %13 to i64
  %15 = call i64 @llvm.expect.i64(i64 %14, i64 0)
  %16 = icmp ne i64 %15, 0
  br i1 %16, label %17, label %24

17:                                               ; preds = %2
  %18 = load double, ptr %3, align 8
  %19 = call i1 @llvm.is.fpclass.f64(double %18, i32 516)
  br i1 %19, label %24, label %20

20:                                               ; preds = %17
  %21 = load double, ptr %4, align 8
  %22 = call i1 @llvm.is.fpclass.f64(double %21, i32 516)
  br i1 %22, label %24, label %23

23:                                               ; preds = %20
  call void @float_overflow_error() #12
  unreachable

24:                                               ; preds = %20, %17, %2
  %25 = load double, ptr %5, align 8
  call void @llvm.lifetime.end.p0(i64 8, ptr %5) #10
  ret double %25
}

; Function Attrs: inlinehint nounwind uwtable
define internal double @float8_pl(double noundef %0, double noundef %1) #2 {
  %3 = alloca double, align 8
  %4 = alloca double, align 8
  %5 = alloca double, align 8
  store double %0, ptr %3, align 8
  store double %1, ptr %4, align 8
  call void @llvm.lifetime.start.p0(i64 8, ptr %5) #10
  %6 = load double, ptr %3, align 8
  %7 = load double, ptr %4, align 8
  %8 = fadd double %6, %7
  store double %8, ptr %5, align 8
  %9 = load double, ptr %5, align 8
  %10 = call i1 @llvm.is.fpclass.f64(double %9, i32 516)
  %11 = zext i1 %10 to i32
  %12 = icmp ne i32 %11, 0
  %13 = zext i1 %12 to i32
  %14 = sext i32 %13 to i64
  %15 = call i64 @llvm.expect.i64(i64 %14, i64 0)
  %16 = icmp ne i64 %15, 0
  br i1 %16, label %17, label %24

17:                                               ; preds = %2
  %18 = load double, ptr %3, align 8
  %19 = call i1 @llvm.is.fpclass.f64(double %18, i32 516)
  br i1 %19, label %24, label %20

20:                                               ; preds = %17
  %21 = load double, ptr %4, align 8
  %22 = call i1 @llvm.is.fpclass.f64(double %21, i32 516)
  br i1 %22, label %24, label %23

23:                                               ; preds = %20
  call void @float_overflow_error() #12
  unreachable

24:                                               ; preds = %20, %17, %2
  %25 = load double, ptr %5, align 8
  call void @llvm.lifetime.end.p0(i64 8, ptr %5) #10
  ret double %25
}

; Function Attrs: inlinehint nounwind uwtable
define internal ptr @DatumGetCircleP(i64 noundef %0) #2 {
  %2 = alloca i64, align 8
  store i64 %0, ptr %2, align 8
  %3 = load i64, ptr %2, align 8
  %4 = call ptr @DatumGetPointer(i64 noundef %3)
  ret ptr %4
}

; Function Attrs: inlinehint nounwind uwtable
define internal ptr @DatumGetPointer(i64 noundef %0) #2 {
  %2 = alloca i64, align 8
  store i64 %0, ptr %2, align 8
  %3 = load i64, ptr %2, align 8
  %4 = inttoptr i64 %3 to ptr
  ret ptr %4
}

; Function Attrs: nounwind uwtable
define dso_local i64 @gist_circle_compress(ptr noundef %0) #0 {
  %2 = alloca ptr, align 8
  %3 = alloca ptr, align 8
  %4 = alloca ptr, align 8
  %5 = alloca ptr, align 8
  %6 = alloca ptr, align 8
  store ptr %0, ptr %2, align 8
  call void @llvm.lifetime.start.p0(i64 8, ptr %3) #10
  %7 = load ptr, ptr %2, align 8
  %8 = getelementptr inbounds nuw %struct.FunctionCallInfoBaseData, ptr %7, i32 0, i32 6
  %9 = getelementptr inbounds [0 x %struct.NullableDatum], ptr %8, i64 0, i64 0
  %10 = getelementptr inbounds nuw %struct.NullableDatum, ptr %9, i32 0, i32 0
  %11 = load i64, ptr %10, align 8
  %12 = call ptr @DatumGetPointer(i64 noundef %11)
  store ptr %12, ptr %3, align 8
  call void @llvm.lifetime.start.p0(i64 8, ptr %4) #10
  %13 = load ptr, ptr %3, align 8
  %14 = getelementptr inbounds nuw %struct.GISTENTRY, ptr %13, i32 0, i32 4
  %15 = load i8, ptr %14, align 2, !range !4, !noundef !5
  %16 = trunc i8 %15 to i1
  br i1 %16, label %17, label %92

17:                                               ; preds = %1
  call void @llvm.lifetime.start.p0(i64 8, ptr %5) #10
  %18 = load ptr, ptr %3, align 8
  %19 = getelementptr inbounds nuw %struct.GISTENTRY, ptr %18, i32 0, i32 0
  %20 = load i64, ptr %19, align 8
  %21 = call ptr @DatumGetCircleP(i64 noundef %20)
  store ptr %21, ptr %5, align 8
  call void @llvm.lifetime.start.p0(i64 8, ptr %6) #10
  %22 = call ptr @palloc(i64 noundef 32)
  store ptr %22, ptr %6, align 8
  %23 = load ptr, ptr %5, align 8
  %24 = getelementptr inbounds nuw %struct.CIRCLE, ptr %23, i32 0, i32 0
  %25 = getelementptr inbounds nuw %struct.Point, ptr %24, i32 0, i32 0
  %26 = load double, ptr %25, align 8
  %27 = load ptr, ptr %5, align 8
  %28 = getelementptr inbounds nuw %struct.CIRCLE, ptr %27, i32 0, i32 1
  %29 = load double, ptr %28, align 8
  %30 = call double @float8_pl(double noundef %26, double noundef %29)
  %31 = load ptr, ptr %6, align 8
  %32 = getelementptr inbounds nuw %struct.BOX, ptr %31, i32 0, i32 0
  %33 = getelementptr inbounds nuw %struct.Point, ptr %32, i32 0, i32 0
  store double %30, ptr %33, align 8
  %34 = load ptr, ptr %5, align 8
  %35 = getelementptr inbounds nuw %struct.CIRCLE, ptr %34, i32 0, i32 0
  %36 = getelementptr inbounds nuw %struct.Point, ptr %35, i32 0, i32 0
  %37 = load double, ptr %36, align 8
  %38 = load ptr, ptr %5, align 8
  %39 = getelementptr inbounds nuw %struct.CIRCLE, ptr %38, i32 0, i32 1
  %40 = load double, ptr %39, align 8
  %41 = call double @float8_mi(double noundef %37, double noundef %40)
  %42 = load ptr, ptr %6, align 8
  %43 = getelementptr inbounds nuw %struct.BOX, ptr %42, i32 0, i32 1
  %44 = getelementptr inbounds nuw %struct.Point, ptr %43, i32 0, i32 0
  store double %41, ptr %44, align 8
  %45 = load ptr, ptr %5, align 8
  %46 = getelementptr inbounds nuw %struct.CIRCLE, ptr %45, i32 0, i32 0
  %47 = getelementptr inbounds nuw %struct.Point, ptr %46, i32 0, i32 1
  %48 = load double, ptr %47, align 8
  %49 = load ptr, ptr %5, align 8
  %50 = getelementptr inbounds nuw %struct.CIRCLE, ptr %49, i32 0, i32 1
  %51 = load double, ptr %50, align 8
  %52 = call double @float8_pl(double noundef %48, double noundef %51)
  %53 = load ptr, ptr %6, align 8
  %54 = getelementptr inbounds nuw %struct.BOX, ptr %53, i32 0, i32 0
  %55 = getelementptr inbounds nuw %struct.Point, ptr %54, i32 0, i32 1
  store double %52, ptr %55, align 8
  %56 = load ptr, ptr %5, align 8
  %57 = getelementptr inbounds nuw %struct.CIRCLE, ptr %56, i32 0, i32 0
  %58 = getelementptr inbounds nuw %struct.Point, ptr %57, i32 0, i32 1
  %59 = load double, ptr %58, align 8
  %60 = load ptr, ptr %5, align 8
  %61 = getelementptr inbounds nuw %struct.CIRCLE, ptr %60, i32 0, i32 1
  %62 = load double, ptr %61, align 8
  %63 = call double @float8_mi(double noundef %59, double noundef %62)
  %64 = load ptr, ptr %6, align 8
  %65 = getelementptr inbounds nuw %struct.BOX, ptr %64, i32 0, i32 1
  %66 = getelementptr inbounds nuw %struct.Point, ptr %65, i32 0, i32 1
  store double %63, ptr %66, align 8
  %67 = call ptr @palloc(i64 noundef 32)
  store ptr %67, ptr %4, align 8
  br label %68

68:                                               ; preds = %17
  %69 = load ptr, ptr %6, align 8
  %70 = call i64 @PointerGetDatum(ptr noundef %69)
  %71 = load ptr, ptr %4, align 8
  %72 = getelementptr inbounds nuw %struct.GISTENTRY, ptr %71, i32 0, i32 0
  store i64 %70, ptr %72, align 8
  %73 = load ptr, ptr %3, align 8
  %74 = getelementptr inbounds nuw %struct.GISTENTRY, ptr %73, i32 0, i32 1
  %75 = load ptr, ptr %74, align 8
  %76 = load ptr, ptr %4, align 8
  %77 = getelementptr inbounds nuw %struct.GISTENTRY, ptr %76, i32 0, i32 1
  store ptr %75, ptr %77, align 8
  %78 = load ptr, ptr %3, align 8
  %79 = getelementptr inbounds nuw %struct.GISTENTRY, ptr %78, i32 0, i32 2
  %80 = load ptr, ptr %79, align 8
  %81 = load ptr, ptr %4, align 8
  %82 = getelementptr inbounds nuw %struct.GISTENTRY, ptr %81, i32 0, i32 2
  store ptr %80, ptr %82, align 8
  %83 = load ptr, ptr %3, align 8
  %84 = getelementptr inbounds nuw %struct.GISTENTRY, ptr %83, i32 0, i32 3
  %85 = load i16, ptr %84, align 8
  %86 = load ptr, ptr %4, align 8
  %87 = getelementptr inbounds nuw %struct.GISTENTRY, ptr %86, i32 0, i32 3
  store i16 %85, ptr %87, align 8
  %88 = load ptr, ptr %4, align 8
  %89 = getelementptr inbounds nuw %struct.GISTENTRY, ptr %88, i32 0, i32 4
  store i8 0, ptr %89, align 2
  br label %90

90:                                               ; preds = %68
  br label %91

91:                                               ; preds = %90
  call void @llvm.lifetime.end.p0(i64 8, ptr %6) #10
  call void @llvm.lifetime.end.p0(i64 8, ptr %5) #10
  br label %94

92:                                               ; preds = %1
  %93 = load ptr, ptr %3, align 8
  store ptr %93, ptr %4, align 8
  br label %94

94:                                               ; preds = %92, %91
  %95 = load ptr, ptr %4, align 8
  %96 = call i64 @PointerGetDatum(ptr noundef %95)
  call void @llvm.lifetime.end.p0(i64 8, ptr %4) #10
  call void @llvm.lifetime.end.p0(i64 8, ptr %3) #10
  ret i64 %96
}