; Function Attrs: nounwind uwtable
define dso_local i64 @gist_circle_compress(ptr noundef readonly captures(none) %0) local_unnamed_addr #0 {
  %2 = getelementptr inbounds nuw i8, ptr %0, i64 32
  %3 = load i64, ptr %2, align 8
  %4 = inttoptr i64 %3 to ptr
  %5 = getelementptr inbounds nuw i8, ptr %4, i64 26
  %6 = load i8, ptr %5, align 2, !range !14, !noundef !15
  %7 = trunc nuw i8 %6 to i1
  br i1 %7, label %8, label %74

8:                                                ; preds = %1
  %9 = load i64, ptr %4, align 8
  %10 = inttoptr i64 %9 to ptr
  %11 = tail call ptr @palloc(i64 noundef 32) #16
  %12 = load double, ptr %10, align 8
  %13 = getelementptr inbounds nuw i8, ptr %10, i64 16
  %14 = load double, ptr %13, align 8
  %15 = fadd double %12, %14
  %16 = tail call double @llvm.fabs.f64(double %15)
  %17 = fcmp oeq double %16, 0x7FF0000000000000
  br i1 %17, label %18, label %float8_pl.exit, !prof !6

18:                                               ; preds = %8
  %19 = tail call double @llvm.fabs.f64(double %12)
  %20 = fcmp oeq double %19, 0x7FF0000000000000
  %21 = tail call double @llvm.fabs.f64(double %14)
  %22 = fcmp oeq double %21, 0x7FF0000000000000
  %or.cond.i = or i1 %20, %22
  br i1 %or.cond.i, label %float8_pl.exit, label %23

23:                                               ; preds = %18
  tail call void @float_overflow_error() #17
  unreachable

float8_pl.exit:                                   ; preds = %8, %18
  store double %15, ptr %11, align 8
  %24 = load double, ptr %10, align 8
  %25 = load double, ptr %13, align 8
  %26 = fsub double %24, %25
  %27 = tail call double @llvm.fabs.f64(double %26)
  %28 = fcmp oeq double %27, 0x7FF0000000000000
  br i1 %28, label %29, label %float8_mi.exit, !prof !6

29:                                               ; preds = %float8_pl.exit
  %30 = tail call double @llvm.fabs.f64(double %24)
  %31 = fcmp oeq double %30, 0x7FF0000000000000
  %32 = tail call double @llvm.fabs.f64(double %25)
  %33 = fcmp oeq double %32, 0x7FF0000000000000
  %or.cond.i26 = or i1 %31, %33
  br i1 %or.cond.i26, label %float8_mi.exit, label %34

34:                                               ; preds = %29
  tail call void @float_overflow_error() #17
  unreachable

float8_mi.exit:                                   ; preds = %float8_pl.exit, %29
  %35 = getelementptr inbounds nuw i8, ptr %11, i64 16
  store double %26, ptr %35, align 8
  %36 = getelementptr inbounds nuw i8, ptr %10, i64 8
  %37 = load double, ptr %36, align 8
  %38 = load double, ptr %13, align 8
  %39 = fadd double %37, %38
  %40 = tail call double @llvm.fabs.f64(double %39)
  %41 = fcmp oeq double %40, 0x7FF0000000000000
  br i1 %41, label %42, label %float8_pl.exit28, !prof !6

42:                                               ; preds = %float8_mi.exit
  %43 = tail call double @llvm.fabs.f64(double %37)
  %44 = fcmp oeq double %43, 0x7FF0000000000000
  %45 = tail call double @llvm.fabs.f64(double %38)
  %46 = fcmp oeq double %45, 0x7FF0000000000000
  %or.cond.i27 = or i1 %44, %46
  br i1 %or.cond.i27, label %float8_pl.exit28, label %47

47:                                               ; preds = %42
  tail call void @float_overflow_error() #17
  unreachable

float8_pl.exit28:                                 ; preds = %float8_mi.exit, %42
  %48 = getelementptr inbounds nuw i8, ptr %11, i64 8
  store double %39, ptr %48, align 8
  %49 = load double, ptr %36, align 8
  %50 = load double, ptr %13, align 8
  %51 = fsub double %49, %50
  %52 = tail call double @llvm.fabs.f64(double %51)
  %53 = fcmp oeq double %52, 0x7FF0000000000000
  br i1 %53, label %54, label %float8_mi.exit30, !prof !6

54:                                               ; preds = %float8_pl.exit28
  %55 = tail call double @llvm.fabs.f64(double %49)
  %56 = fcmp oeq double %55, 0x7FF0000000000000
  %57 = tail call double @llvm.fabs.f64(double %50)
  %58 = fcmp oeq double %57, 0x7FF0000000000000
  %or.cond.i29 = or i1 %56, %58
  br i1 %or.cond.i29, label %float8_mi.exit30, label %59

59:                                               ; preds = %54
  tail call void @float_overflow_error() #17
  unreachable

float8_mi.exit30:                                 ; preds = %float8_pl.exit28, %54
  %60 = getelementptr inbounds nuw i8, ptr %11, i64 24
  store double %51, ptr %60, align 8
  %61 = tail call ptr @palloc(i64 noundef 32) #16
  %62 = ptrtoint ptr %11 to i64
  store i64 %62, ptr %61, align 8
  %63 = getelementptr inbounds nuw i8, ptr %4, i64 8
  %64 = load ptr, ptr %63, align 8
  %65 = getelementptr inbounds nuw i8, ptr %61, i64 8
  store ptr %64, ptr %65, align 8
  %66 = getelementptr inbounds nuw i8, ptr %4, i64 16
  %67 = load ptr, ptr %66, align 8
  %68 = getelementptr inbounds nuw i8, ptr %61, i64 16
  store ptr %67, ptr %68, align 8
  %69 = getelementptr inbounds nuw i8, ptr %4, i64 24
  %70 = load i16, ptr %69, align 8
  %71 = getelementptr inbounds nuw i8, ptr %61, i64 24
  store i16 %70, ptr %71, align 8
  %72 = getelementptr inbounds nuw i8, ptr %61, i64 26
  store i8 0, ptr %72, align 2
  %73 = ptrtoint ptr %61 to i64
  br label %74

74:                                               ; preds = %1, %float8_mi.exit30
  %.0 = phi i64 [ %73, %float8_mi.exit30 ], [ %3, %1 ]
  ret i64 %.0
}